target datalayout = "e-m:e-p270:32:32-p271:32:32-p272:64:64-i64:64-i128:128-f80:128-n8:16:32:64-S128"
target triple = "x86_64-pc-linux-gnu"

%struct.Pdr_Set_t_ = type { i64, i32, i32, i32, [0 x i32] }
%struct.Vec_Int_t_ = type { i32, i32, ptr }
%struct.Vec_Str_t_ = type { i32, i32, ptr }

; Function Attrs: nounwind uwtable
define internal void @Vec_StrGrow(ptr noundef %0, i32 noundef %1) #0 {
  %3 = alloca ptr, align 8
  %4 = alloca i32, align 4
  store ptr %0, ptr %3, align 8
  store i32 %1, ptr %4, align 4
  %5 = load ptr, ptr %3, align 8
  %6 = getelementptr inbounds %struct.Vec_Str_t_, ptr %5, i32 0, i32 0
  %7 = load i32, ptr %6, align 8
  %8 = load i32, ptr %4, align 4
  %9 = icmp sge i32 %7, %8
  br i1 %9, label %10, label %11

10:                                               ; preds = %2
  br label %36

11:                                               ; preds = %2
  %12 = load ptr, ptr %3, align 8
  %13 = getelementptr inbounds %struct.Vec_Str_t_, ptr %12, i32 0, i32 2
  %14 = load ptr, ptr %13, align 8
  %15 = icmp ne ptr %14, null
  br i1 %15, label %16, label %24

16:                                               ; preds = %11
  %17 = load ptr, ptr %3, align 8
  %18 = getelementptr inbounds %struct.Vec_Str_t_, ptr %17, i32 0, i32 2
  %19 = load ptr, ptr %18, align 8
  %20 = load i32, ptr %4, align 4
  %21 = sext i32 %20 to i64
  %22 = mul i64 1, %21
  %23 = call ptr @realloc(ptr noundef %19, i64 noundef %22) #13
  br label %29

24:                                               ; preds = %11
  %25 = load i32, ptr %4, align 4
  %26 = sext i32 %25 to i64
  %27 = mul i64 1, %26
  %28 = call noalias ptr @malloc(i64 noundef %27) #10
  br label %29

29:                                               ; preds = %24, %16
  %30 = phi ptr [ %23, %16 ], [ %28, %24 ]
  %31 = load ptr, ptr %3, align 8
  %32 = getelementptr inbounds %struct.Vec_Str_t_, ptr %31, i32 0, i32 2
  store ptr %30, ptr %32, align 8
  %33 = load i32, ptr %4, align 4
  %34 = load ptr, ptr %3, align 8
  %35 = getelementptr inbounds %struct.Vec_Str_t_, ptr %34, i32 0, i32 0
  store i32 %33, ptr %35, align 8
  br label %36

36:                                               ; preds = %29, %10
  ret void
}

; Function Attrs: nounwind uwtable
define internal void @Vec_StrPush(ptr noundef %0, i8 noundef signext %1) #0 {
  %3 = alloca ptr, align 8
  %4 = alloca i8, align 1
  store ptr %0, ptr %3, align 8
  store i8 %1, ptr %4, align 1
  %5 = load ptr, ptr %3, align 8
  %6 = getelementptr inbounds %struct.Vec_Str_t_, ptr %5, i32 0, i32 1
  %7 = load i32, ptr %6, align 4
  %8 = load ptr, ptr %3, align 8
  %9 = getelementptr inbounds %struct.Vec_Str_t_, ptr %8, i32 0, i32 0
  %10 = load i32, ptr %9, align 8
  %11 = icmp eq i32 %7, %10
  br i1 %11, label %12, label %26

12:                                               ; preds = %2
  %13 = load ptr, ptr %3, align 8
  %14 = getelementptr inbounds %struct.Vec_Str_t_, ptr %13, i32 0, i32 0
  %15 = load i32, ptr %14, align 8
  %16 = icmp slt i32 %15, 16
  br i1 %16, label %17, label %19

17:                                               ; preds = %12
  %18 = load ptr, ptr %3, align 8
  call void @Vec_StrGrow(ptr noundef %18, i32 noundef 16)
  br label %25

19:                                               ; preds = %12
  %20 = load ptr, ptr %3, align 8
  %21 = load ptr, ptr %3, align 8
  %22 = getelementptr inbounds %struct.Vec_Str_t_, ptr %21, i32 0, i32 0
  %23 = load i32, ptr %22, align 8
  %24 = mul nsw i32 2, %23
  call void @Vec_StrGrow(ptr noundef %20, i32 noundef %24)
  br label %25

25:                                               ; preds = %19, %17
  br label %26

26:                                               ; preds = %25, %2
  %27 = load i8, ptr %4, align 1
  %28 = load ptr, ptr %3, align 8
  %29 = getelementptr inbounds %struct.Vec_Str_t_, ptr %28, i32 0, i32 2
  %30 = load ptr, ptr %29, align 8
  %31 = load ptr, ptr %3, align 8
  %32 = getelementptr inbounds %struct.Vec_Str_t_, ptr %31, i32 0, i32 1
  %33 = load i32, ptr %32, align 4
  %34 = add nsw i32 %33, 1
  store i32 %34, ptr %32, align 4
  %35 = sext i32 %33 to i64
  %36 = getelementptr inbounds i8, ptr %30, i64 %35
  store i8 %27, ptr %36, align 1
  ret void
}

; Function Attrs: nounwind uwtable
define internal void @Vec_StrPushBuffer(ptr noundef %0, ptr noundef %1, i32 noundef %2) #0 {
  %4 = alloca ptr, align 8
  %5 = alloca ptr, align 8
  %6 = alloca i32, align 4
  store ptr %0, ptr %4, align 8
  store ptr %1, ptr %5, align 8
  store i32 %2, ptr %6, align 4
  %7 = load ptr, ptr %4, align 8
  %8 = getelementptr inbounds %struct.Vec_Str_t_, ptr %7, i32 0, i32 1
  %9 = load i32, ptr %8, align 4
  %10 = load i32, ptr %6, align 4
  %11 = add nsw i32 %9, %10
  %12 = load ptr, ptr %4, align 8
  %13 = getelementptr inbounds %struct.Vec_Str_t_, ptr %12, i32 0, i32 0
  %14 = load i32, ptr %13, align 8
  %15 = icmp sgt i32 %11, %14
  br i1 %15, label %16, label %24

16:                                               ; preds = %3
  %17 = load ptr, ptr %4, align 8
  %18 = load ptr, ptr %4, align 8
  %19 = getelementptr inbounds %struct.Vec_Str_t_, ptr %18, i32 0, i32 1
  %20 = load i32, ptr %19, align 4
  %21 = load i32, ptr %6, align 4
  %22 = add nsw i32 %20, %21
  %23 = mul nsw i32 2, %22
  call void @Vec_StrGrow(ptr noundef %17, i32 noundef %23)
  br label %24

24:                                               ; preds = %16, %3
  %25 = load ptr, ptr %4, align 8
  %26 = getelementptr inbounds %struct.Vec_Str_t_, ptr %25, i32 0, i32 2
  %27 = load ptr, ptr %26, align 8
  %28 = load ptr, ptr %4, align 8
  %29 = getelementptr inbounds %struct.Vec_Str_t_, ptr %28, i32 0, i32 1
  %30 = load i32, ptr %29, align 4
  %31 = sext i32 %30 to i64
  %32 = getelementptr inbounds i8, ptr %27, i64 %31
  %33 = load ptr, ptr %5, align 8
  %34 = load i32, ptr %6, align 4
  %35 = sext i32 %34 to i64
  call void @llvm.memcpy.p0.p0.i64(ptr align 1 %32, ptr align 1 %33, i64 %35, i1 false)
  %36 = load i32, ptr %6, align 4
  %37 = load ptr, ptr %4, align 8
  %38 = getelementptr inbounds %struct.Vec_Str_t_, ptr %37, i32 0, i32 1
  %39 = load i32, ptr %38, align 4
  %40 = add nsw i32 %39, %36
  store i32 %40, ptr %38, align 4
  ret void
}

; Function Attrs: nounwind uwtable
define internal i32 @Vec_IntEntry(ptr noundef %0, i32 noundef %1) #0 {
  %3 = alloca ptr, align 8
  %4 = alloca i32, align 4
  store ptr %0, ptr %3, align 8
  store i32 %1, ptr %4, align 4
  %5 = load ptr, ptr %3, align 8
  %6 = getelementptr inbounds %struct.Vec_Int_t_, ptr %5, i32 0, i32 2
  %7 = load ptr, ptr %6, align 8
  %8 = load i32, ptr %4, align 4
  %9 = sext i32 %8 to i64
  %10 = getelementptr inbounds i32, ptr %7, i64 %9
  %11 = load i32, ptr %10, align 4
  ret i32 %11
}

; Function Attrs: nounwind uwtable
define internal i32 @Vec_IntSize(ptr noundef %0) #0 {
  %2 = alloca ptr, align 8
  store ptr %0, ptr %2, align 8
  %3 = load ptr, ptr %2, align 8
  %4 = getelementptr inbounds %struct.Vec_Int_t_, ptr %3, i32 0, i32 1
  %5 = load i32, ptr %4, align 4
  ret i32 %5
}

; Function Attrs: nounwind uwtable
define internal i32 @Abc_Lit2Var(i32 noundef %0) #0 {
  %2 = alloca i32, align 4
  store i32 %0, ptr %2, align 4
  %3 = load i32, ptr %2, align 4
  %4 = ashr i32 %3, 1
  ret i32 %4
}

; Function Attrs: nounwind uwtable
define internal i32 @Abc_LitIsCompl(i32 noundef %0) #0 {
  %2 = alloca i32, align 4
  store i32 %0, ptr %2, align 4
  %3 = load i32, ptr %2, align 4
  %4 = and i32 %3, 1
  ret i32 %4
}

; Function Attrs: nounwind uwtable
define void @Pdr_SetPrintStr(ptr noundef %0, ptr noundef %1, i32 noundef %2, ptr noundef %3) #0 {
  %5 = alloca ptr, align 8
  %6 = alloca ptr, align 8
  %7 = alloca i32, align 4
  %8 = alloca ptr, align 8
  %9 = alloca ptr, align 8
  %10 = alloca i32, align 4
  %11 = alloca i32, align 4
  %12 = alloca i32, align 4
  store ptr %0, ptr %5, align 8
  store ptr %1, ptr %6, align 8
  store i32 %2, ptr %7, align 4
  store ptr %3, ptr %8, align 8
  store i32 0, ptr %11, align 4
  %13 = load i32, ptr %7, align 4
  %14 = add nsw i32 %13, 1
  %15 = sext i32 %14 to i64
  %16 = mul i64 1, %15
  %17 = call noalias ptr @malloc(i64 noundef %16) #10
  store ptr %17, ptr %9, align 8
  store i32 0, ptr %10, align 4
  br label %18

18:                                               ; preds = %27, %4
  %19 = load i32, ptr %10, align 4
  %20 = load i32, ptr %7, align 4
  %21 = icmp slt i32 %19, %20
  br i1 %21, label %22, label %30

22:                                               ; preds = %18
  %23 = load ptr, ptr %9, align 8
  %24 = load i32, ptr %10, align 4
  %25 = sext i32 %24 to i64
  %26 = getelementptr inbounds i8, ptr %23, i64 %25
  store i8 45, ptr %26, align 1
  br label %27

27:                                               ; preds = %22
  %28 = load i32, ptr %10, align 4
  %29 = add nsw i32 %28, 1
  store i32 %29, ptr %10, align 4
  br label %18, !llvm.loop !19

30:                                               ; preds = %18
  %31 = load ptr, ptr %9, align 8
  %32 = load i32, ptr %10, align 4
  %33 = sext i32 %32 to i64
  %34 = getelementptr inbounds i8, ptr %31, i64 %33
  store i8 0, ptr %34, align 1
  store i32 0, ptr %10, align 4
  br label %35

35:                                               ; preds = %71, %30
  %36 = load i32, ptr %10, align 4
  %37 = load ptr, ptr %6, align 8
  %38 = getelementptr inbounds %struct.Pdr_Set_t_, ptr %37, i32 0, i32 3
  %39 = load i32, ptr %38, align 8
  %40 = icmp slt i32 %36, %39
  br i1 %40, label %41, label %74

41:                                               ; preds = %35
  %42 = load ptr, ptr %6, align 8
  %43 = getelementptr inbounds %struct.Pdr_Set_t_, ptr %42, i32 0, i32 4
  %44 = load i32, ptr %10, align 4
  %45 = sext i32 %44 to i64
  %46 = getelementptr inbounds [0 x i32], ptr %43, i64 0, i64 %45
  %47 = load i32, ptr %46, align 4
  %48 = icmp eq i32 %47, -1
  br i1 %48, label %49, label %50

49:                                               ; preds = %41
  br label %71

50:                                               ; preds = %41
  %51 = load ptr, ptr %6, align 8
  %52 = getelementptr inbounds %struct.Pdr_Set_t_, ptr %51, i32 0, i32 4
  %53 = load i32, ptr %10, align 4
  %54 = sext i32 %53 to i64
  %55 = getelementptr inbounds [0 x i32], ptr %52, i64 0, i64 %54
  %56 = load i32, ptr %55, align 4
  %57 = call i32 @Abc_LitIsCompl(i32 noundef %56)
  %58 = icmp ne i32 %57, 0
  %59 = select i1 %58, i32 48, i32 49
  %60 = trunc i32 %59 to i8
  %61 = load ptr, ptr %9, align 8
  %62 = load ptr, ptr %6, align 8
  %63 = getelementptr inbounds %struct.Pdr_Set_t_, ptr %62, i32 0, i32 4
  %64 = load i32, ptr %10, align 4
  %65 = sext i32 %64 to i64
  %66 = getelementptr inbounds [0 x i32], ptr %63, i64 0, i64 %65
  %67 = load i32, ptr %66, align 4
  %68 = call i32 @Abc_Lit2Var(i32 noundef %67)
  %69 = sext i32 %68 to i64
  %70 = getelementptr inbounds i8, ptr %61, i64 %69
  store i8 %60, ptr %70, align 1
  br label %71

71:                                               ; preds = %50, %49
  %72 = load i32, ptr %10, align 4
  %73 = add nsw i32 %72, 1
  store i32 %73, ptr %10, align 4
  br label %35, !llvm.loop !20

74:                                               ; preds = %35
  %75 = load ptr, ptr %8, align 8
  %76 = icmp ne ptr %75, null
  br i1 %76, label %77, label %112

77:                                               ; preds = %74
  store i32 0, ptr %10, align 4
  br label %78

78:                                               ; preds = %104, %77
  %79 = load i32, ptr %10, align 4
  %80 = load ptr, ptr %8, align 8
  %81 = call i32 @Vec_IntSize(ptr noundef %80)
  %82 = icmp slt i32 %79, %81
  br i1 %82, label %83, label %87

83:                                               ; preds = %78
  %84 = load ptr, ptr %8, align 8
  %85 = load i32, ptr %10, align 4
  %86 = call i32 @Vec_IntEntry(ptr noundef %84, i32 noundef %85)
  store i32 %86, ptr %12, align 4
  br label %87

87:                                               ; preds = %83, %78
  %88 = phi i1 [ false, %78 ], [ true, %83 ]
  br i1 %88, label %89, label %107

89:                                               ; preds = %87
  %90 = load i32, ptr %12, align 4
  %91 = icmp ne i32 %90, 0
  br i1 %91, label %92, label %103

92:                                               ; preds = %89
  %93 = load ptr, ptr %9, align 8
  %94 = load i32, ptr %10, align 4
  %95 = sext i32 %94 to i64
  %96 = getelementptr inbounds i8, ptr %93, i64 %95
  %97 = load i8, ptr %96, align 1
  %98 = load ptr, ptr %9, align 8
  %99 = load i32, ptr %11, align 4
  %100 = add nsw i32 %99, 1
  store i32 %100, ptr %11, align 4
  %101 = sext i32 %99 to i64
  %102 = getelementptr inbounds i8, ptr %98, i64 %101
  store i8 %97, ptr %102, align 1
  br label %103

103:                                              ; preds = %92, %89
  br label %104

104:                                              ; preds = %103
  %105 = load i32, ptr %10, align 4
  %106 = add nsw i32 %105, 1
  store i32 %106, ptr %10, align 4
  br label %78, !llvm.loop !21

107:                                              ; preds = %87
  %108 = load ptr, ptr %9, align 8
  %109 = load i32, ptr %11, align 4
  %110 = sext i32 %109 to i64
  %111 = getelementptr inbounds i8, ptr %108, i64 %110
  store i8 0, ptr %111, align 1
  br label %112

112:                                              ; preds = %107, %74
  %113 = load ptr, ptr %5, align 8
  %114 = load ptr, ptr %9, align 8
  %115 = load i32, ptr %11, align 4
  call void @Vec_StrPushBuffer(ptr noundef %113, ptr noundef %114, i32 noundef %115)
  %116 = load ptr, ptr %5, align 8
  call void @Vec_StrPush(ptr noundef %116, i8 noundef signext 32)
  %117 = load ptr, ptr %5, align 8
  call void @Vec_StrPush(ptr noundef %117, i8 noundef signext 49)
  %118 = load ptr, ptr %5, align 8
  call void @Vec_StrPush(ptr noundef %118, i8 noundef signext 10)
  %119 = load ptr, ptr %9, align 8
  %120 = icmp ne ptr %119, null
  br i1 %120, label %121, label %123

121:                                              ; preds = %112
  %122 = load ptr, ptr %9, align 8
  call void @free(ptr noundef %122) #11
  store ptr null, ptr %9, align 8
  br label %124

123:                                              ; preds = %112
  br label %124

124:                                              ; preds = %123, %121
  ret void
}