; Function Attrs: nounwind uwtable
define void @Pdr_SetPrintStr(ptr noundef captures(none) %0, ptr noundef readonly captures(none) %1, i32 noundef %2, ptr noundef readonly %3) local_unnamed_addr #9 {
  %5 = add nsw i32 %2, 1
  %6 = sext i32 %5 to i64
  %7 = tail call noalias ptr @malloc(i64 noundef %6) #26
  %8 = icmp sgt i32 %2, 0
  br i1 %8, label %.lr.ph.preheader, label %._crit_edge

.lr.ph.preheader:                                 ; preds = %4
  %9 = zext nneg i32 %2 to i64
  tail call void @llvm.memset.p0.i64(ptr align 1 %7, i8 45, i64 %9, i1 false)
  %10 = zext nneg i32 %2 to i64
  br label %._crit_edge

._crit_edge:                                      ; preds = %.lr.ph.preheader, %4
  %.038.lcssa = phi i64 [ 0, %4 ], [ %10, %.lr.ph.preheader ]
  %11 = getelementptr inbounds nuw i8, ptr %7, i64 %.038.lcssa
  store i8 0, ptr %11, align 1
  %12 = getelementptr inbounds nuw i8, ptr %1, i64 16
  %13 = load i32, ptr %12, align 8
  %14 = icmp sgt i32 %13, 0
  br i1 %14, label %.lr.ph67, label %._crit_edge68

.lr.ph67:                                         ; preds = %._crit_edge
  %15 = getelementptr inbounds nuw i8, ptr %1, i64 20
  %wide.trip.count75 = zext nneg i32 %13 to i64
  br label %16

16:                                               ; preds = %.lr.ph67, %26
  %indvars.iv = phi i64 [ 0, %.lr.ph67 ], [ %indvars.iv.next, %26 ]
  %17 = getelementptr inbounds nuw [0 x i32], ptr %15, i64 0, i64 %indvars.iv
  %18 = load i32, ptr %17, align 4
  %19 = icmp eq i32 %18, -1
  br i1 %19, label %26, label %20

20:                                               ; preds = %16
  %21 = and i32 %18, 1
  %.not46 = icmp eq i32 %21, 0
  %22 = select i1 %.not46, i8 49, i8 48
  %23 = ashr i32 %18, 1
  %24 = sext i32 %23 to i64
  %25 = getelementptr inbounds i8, ptr %7, i64 %24
  store i8 %22, ptr %25, align 1
  br label %26

26:                                               ; preds = %16, %20
  %indvars.iv.next = add nuw nsw i64 %indvars.iv, 1
  %exitcond.not = icmp eq i64 %indvars.iv.next, %wide.trip.count75
  br i1 %exitcond.not, label %._crit_edge68, label %16, !llvm.loop !16

._crit_edge68:                                    ; preds = %26, %._crit_edge
  %.not = icmp eq ptr %3, null
  br i1 %.not, label %42, label %.preheader

.preheader:                                       ; preds = %._crit_edge68
  %27 = getelementptr i8, ptr %3, i64 4
  %.val = load i32, ptr %27, align 4
  %28 = icmp sgt i32 %.val, 0
  br i1 %28, label %.lr.ph71, label %.critedge

.lr.ph71:                                         ; preds = %.preheader
  %29 = getelementptr i8, ptr %3, i64 8
  %.val47 = load ptr, ptr %29, align 8
  %wide.trip.count79 = zext nneg i32 %.val to i64
  br label %30

30:                                               ; preds = %.lr.ph71, %39
  %indvars.iv76 = phi i64 [ 0, %.lr.ph71 ], [ %indvars.iv.next77, %39 ]
  %.170 = phi i32 [ 0, %.lr.ph71 ], [ %.2, %39 ]
  %31 = getelementptr inbounds nuw i32, ptr %.val47, i64 %indvars.iv76
  %32 = load i32, ptr %31, align 4
  %.not45 = icmp eq i32 %32, 0
  br i1 %.not45, label %39, label %33

33:                                               ; preds = %30
  %34 = getelementptr inbounds nuw i8, ptr %7, i64 %indvars.iv76
  %35 = load i8, ptr %34, align 1
  %36 = add nsw i32 %.170, 1
  %37 = sext i32 %.170 to i64
  %38 = getelementptr inbounds i8, ptr %7, i64 %37
  store i8 %35, ptr %38, align 1
  br label %39

39:                                               ; preds = %30, %33
  %.2 = phi i32 [ %36, %33 ], [ %.170, %30 ]
  %indvars.iv.next77 = add nuw nsw i64 %indvars.iv76, 1
  %exitcond80.not = icmp eq i64 %indvars.iv.next77, %wide.trip.count79
  br i1 %exitcond80.not, label %.critedge, label %30, !llvm.loop !17

.critedge:                                        ; preds = %39, %.preheader
  %.1.lcssa = phi i32 [ 0, %.preheader ], [ %.2, %39 ]
  %40 = sext i32 %.1.lcssa to i64
  %41 = getelementptr inbounds i8, ptr %7, i64 %40
  store i8 0, ptr %41, align 1
  br label %42

42:                                               ; preds = %.critedge, %._crit_edge68
  %.0 = phi i32 [ %.1.lcssa, %.critedge ], [ 0, %._crit_edge68 ]
  %43 = getelementptr inbounds nuw i8, ptr %0, i64 4
  %44 = load i32, ptr %43, align 4
  %45 = add nsw i32 %44, %.0
  %46 = load i32, ptr %0, align 8
  %47 = icmp sgt i32 %45, %46
  br i1 %47, label %48, label %Vec_StrPushBuffer.exit

48:                                               ; preds = %42
  %49 = shl nsw i32 %45, 1
  %.not.i.i = icmp slt i32 %46, %49
  br i1 %.not.i.i, label %50, label %Vec_StrPushBuffer.exit

50:                                               ; preds = %48
  %51 = getelementptr inbounds nuw i8, ptr %0, i64 8
  %52 = load ptr, ptr %51, align 8
  %.not9.i.i = icmp eq ptr %52, null
  %53 = sext i32 %49 to i64
  br i1 %.not9.i.i, label %56, label %54

54:                                               ; preds = %50
  %55 = tail call ptr @realloc(ptr noundef nonnull %52, i64 noundef %53) #28
  %.pre.pre.i = load i32, ptr %43, align 4
  br label %58

56:                                               ; preds = %50
  %57 = tail call noalias ptr @malloc(i64 noundef %53) #26
  br label %58

58:                                               ; preds = %56, %54
  %.pre.i = phi i32 [ %.pre.pre.i, %54 ], [ %44, %56 ]
  %59 = phi ptr [ %55, %54 ], [ %57, %56 ]
  store ptr %59, ptr %51, align 8
  store i32 %49, ptr %0, align 8
  br label %Vec_StrPushBuffer.exit

Vec_StrPushBuffer.exit:                           ; preds = %42, %48, %58
  %60 = phi i32 [ %.pre.i, %58 ], [ %44, %48 ], [ %44, %42 ]
  %61 = getelementptr inbounds nuw i8, ptr %0, i64 8
  %62 = load ptr, ptr %61, align 8
  %63 = sext i32 %60 to i64
  %64 = getelementptr inbounds i8, ptr %62, i64 %63
  %65 = sext i32 %.0 to i64
  tail call void @llvm.memcpy.p0.p0.i64(ptr align 1 %64, ptr readonly align 1 %7, i64 %65, i1 false)
  %66 = load i32, ptr %43, align 4
  %67 = add nsw i32 %66, %.0
  store i32 %67, ptr %43, align 4
  %68 = load i32, ptr %0, align 8
  %69 = icmp eq i32 %67, %68
  br i1 %69, label %70, label %.Vec_StrGrow.exit10_crit_edge.i

.Vec_StrGrow.exit10_crit_edge.i:                  ; preds = %Vec_StrPushBuffer.exit
  %.pre.i48 = load ptr, ptr %61, align 8
  br label %Vec_StrPush.exit

70:                                               ; preds = %Vec_StrPushBuffer.exit
  %71 = icmp slt i32 %67, 16
  br i1 %71, label %72, label %79

72:                                               ; preds = %70
  %73 = load ptr, ptr %61, align 8
  %.not9.i.i49 = icmp eq ptr %73, null
  br i1 %.not9.i.i49, label %76, label %74

74:                                               ; preds = %72
  %75 = tail call dereferenceable_or_null(16) ptr @realloc(ptr noundef nonnull %73, i64 noundef 16) #28
  br label %Vec_StrGrow.exit.i

76:                                               ; preds = %72
  %77 = tail call noalias dereferenceable_or_null(16) ptr @malloc(i64 noundef 16) #26
  br label %Vec_StrGrow.exit.i

Vec_StrGrow.exit.i:                               ; preds = %76, %74
  %78 = phi ptr [ %75, %74 ], [ %77, %76 ]
  store ptr %78, ptr %61, align 8
  store i32 16, ptr %0, align 8
  br label %Vec_StrPush.exit

79:                                               ; preds = %70
  %80 = shl nuw nsw i32 %67, 1
  %81 = load ptr, ptr %61, align 8
  %.not9.i9.i = icmp eq ptr %81, null
  %82 = zext nneg i32 %80 to i64
  br i1 %.not9.i9.i, label %85, label %83

83:                                               ; preds = %79
  %84 = tail call ptr @realloc(ptr noundef nonnull %81, i64 noundef %82) #28
  br label %87

85:                                               ; preds = %79
  %86 = tail call noalias ptr @malloc(i64 noundef %82) #26
  br label %87

87:                                               ; preds = %85, %83
  %88 = phi ptr [ %84, %83 ], [ %86, %85 ]
  store ptr %88, ptr %61, align 8
  store i32 %80, ptr %0, align 8
  br label %Vec_StrPush.exit

Vec_StrPush.exit:                                 ; preds = %.Vec_StrGrow.exit10_crit_edge.i, %Vec_StrGrow.exit.i, %87
  %89 = phi ptr [ %.pre.i48, %.Vec_StrGrow.exit10_crit_edge.i ], [ %88, %87 ], [ %78, %Vec_StrGrow.exit.i ]
  %90 = load i32, ptr %43, align 4
  %91 = add nsw i32 %90, 1
  store i32 %91, ptr %43, align 4
  %92 = sext i32 %90 to i64
  %93 = getelementptr inbounds i8, ptr %89, i64 %92
  store i8 32, ptr %93, align 1
  %94 = load i32, ptr %43, align 4
  %95 = load i32, ptr %0, align 8
  %96 = icmp eq i32 %94, %95
  br i1 %96, label %97, label %.Vec_StrGrow.exit10_crit_edge.i50

.Vec_StrGrow.exit10_crit_edge.i50:                ; preds = %Vec_StrPush.exit
  %.pre.i52 = load ptr, ptr %61, align 8
  br label %Vec_StrPush.exit56

97:                                               ; preds = %Vec_StrPush.exit
  %98 = icmp slt i32 %94, 16
  br i1 %98, label %99, label %106

99:                                               ; preds = %97
  %100 = load ptr, ptr %61, align 8
  %.not9.i.i54 = icmp eq ptr %100, null
  br i1 %.not9.i.i54, label %103, label %101

101:                                              ; preds = %99
  %102 = tail call dereferenceable_or_null(16) ptr @realloc(ptr noundef nonnull %100, i64 noundef 16) #28
  br label %Vec_StrGrow.exit.i55

103:                                              ; preds = %99
  %104 = tail call noalias dereferenceable_or_null(16) ptr @malloc(i64 noundef 16) #26
  br label %Vec_StrGrow.exit.i55

Vec_StrGrow.exit.i55:                             ; preds = %103, %101
  %105 = phi ptr [ %102, %101 ], [ %104, %103 ]
  store ptr %105, ptr %61, align 8
  store i32 16, ptr %0, align 8
  br label %Vec_StrPush.exit56

106:                                              ; preds = %97
  %107 = shl nuw nsw i32 %94, 1
  %108 = load ptr, ptr %61, align 8
  %.not9.i9.i53 = icmp eq ptr %108, null
  %109 = zext nneg i32 %107 to i64
  br i1 %.not9.i9.i53, label %112, label %110

110:                                              ; preds = %106
  %111 = tail call ptr @realloc(ptr noundef nonnull %108, i64 noundef %109) #28
  br label %114

112:                                              ; preds = %106
  %113 = tail call noalias ptr @malloc(i64 noundef %109) #26
  br label %114

114:                                              ; preds = %112, %110
  %115 = phi ptr [ %111, %110 ], [ %113, %112 ]
  store ptr %115, ptr %61, align 8
  store i32 %107, ptr %0, align 8
  br label %Vec_StrPush.exit56

Vec_StrPush.exit56:                               ; preds = %.Vec_StrGrow.exit10_crit_edge.i50, %Vec_StrGrow.exit.i55, %114
  %116 = phi ptr [ %.pre.i52, %.Vec_StrGrow.exit10_crit_edge.i50 ], [ %115, %114 ], [ %105, %Vec_StrGrow.exit.i55 ]
  %117 = load i32, ptr %43, align 4
  %118 = add nsw i32 %117, 1
  store i32 %118, ptr %43, align 4
  %119 = sext i32 %117 to i64
  %120 = getelementptr inbounds i8, ptr %116, i64 %119
  store i8 49, ptr %120, align 1
  %121 = load i32, ptr %43, align 4
  %122 = load i32, ptr %0, align 8
  %123 = icmp eq i32 %121, %122
  br i1 %123, label %124, label %.Vec_StrGrow.exit10_crit_edge.i57

.Vec_StrGrow.exit10_crit_edge.i57:                ; preds = %Vec_StrPush.exit56
  %.pre.i59 = load ptr, ptr %61, align 8
  br label %Vec_StrPush.exit63

124:                                              ; preds = %Vec_StrPush.exit56
  %125 = icmp slt i32 %121, 16
  br i1 %125, label %126, label %133

126:                                              ; preds = %124
  %127 = load ptr, ptr %61, align 8
  %.not9.i.i61 = icmp eq ptr %127, null
  br i1 %.not9.i.i61, label %130, label %128

128:                                              ; preds = %126
  %129 = tail call dereferenceable_or_null(16) ptr @realloc(ptr noundef nonnull %127, i64 noundef 16) #28
  br label %Vec_StrGrow.exit.i62

130:                                              ; preds = %126
  %131 = tail call noalias dereferenceable_or_null(16) ptr @malloc(i64 noundef 16) #26
  br label %Vec_StrGrow.exit.i62

Vec_StrGrow.exit.i62:                             ; preds = %130, %128
  %132 = phi ptr [ %129, %128 ], [ %131, %130 ]
  store ptr %132, ptr %61, align 8
  store i32 16, ptr %0, align 8
  br label %Vec_StrPush.exit63

133:                                              ; preds = %124
  %134 = shl nuw nsw i32 %121, 1
  %135 = load ptr, ptr %61, align 8
  %.not9.i9.i60 = icmp eq ptr %135, null
  %136 = zext nneg i32 %134 to i64
  br i1 %.not9.i9.i60, label %139, label %137

137:                                              ; preds = %133
  %138 = tail call ptr @realloc(ptr noundef nonnull %135, i64 noundef %136) #28
  br label %141

139:                                              ; preds = %133
  %140 = tail call noalias ptr @malloc(i64 noundef %136) #26
  br label %141

141:                                              ; preds = %139, %137
  %142 = phi ptr [ %138, %137 ], [ %140, %139 ]
  store ptr %142, ptr %61, align 8
  store i32 %134, ptr %0, align 8
  br label %Vec_StrPush.exit63

Vec_StrPush.exit63:                               ; preds = %.Vec_StrGrow.exit10_crit_edge.i57, %Vec_StrGrow.exit.i62, %141
  %143 = phi ptr [ %.pre.i59, %.Vec_StrGrow.exit10_crit_edge.i57 ], [ %142, %141 ], [ %132, %Vec_StrGrow.exit.i62 ]
  %144 = load i32, ptr %43, align 4
  %145 = add nsw i32 %144, 1
  store i32 %145, ptr %43, align 4
  %146 = sext i32 %144 to i64
  %147 = getelementptr inbounds i8, ptr %143, i64 %146
  store i8 10, ptr %147, align 1
  %.not44 = icmp eq ptr %7, null
  br i1 %.not44, label %149, label %148

148:                                              ; preds = %Vec_StrPush.exit63
  tail call void @free(ptr noundef nonnull %7) #27
  br label %149

149:                                              ; preds = %Vec_StrPush.exit63, %148
  ret void
}